target datalayout = "e-m:e-p270:32:32-p271:32:32-p272:64:64-i64:64-i128:128-f80:128-n8:16:32:64-S128"
target triple = "x86_64-pc-linux-gnu"

%"class.OpenSubdiv::v3_6_0::Far::TopologyRefiner" = type { i32, %"class.OpenSubdiv::v3_6_0::Sdc::Options", i16, [2 x i8], %"struct.OpenSubdiv::v3_6_0::Far::TopologyRefiner::UniformOptions", %"struct.OpenSubdiv::v3_6_0::Far::TopologyRefiner::AdaptiveOptions", i32, i32, i32, i32, i32, i8, %"class.std::vector", %"class.std::vector.0", %"class.std::vector.5" }
%"class.OpenSubdiv::v3_6_0::Sdc::Options" = type { i8, i8, i8, i8 }
%"struct.OpenSubdiv::v3_6_0::Far::TopologyRefiner::UniformOptions" = type { i8, [3 x i8] }
%"struct.OpenSubdiv::v3_6_0::Far::TopologyRefiner::AdaptiveOptions" = type { i16, [2 x i8] }
%"class.std::vector" = type { %"struct.std::_Vector_base" }
%"struct.std::_Vector_base" = type { %"struct.std::_Vector_base<OpenSubdiv::v3_6_0::Vtr::internal::Level *, std::allocator<OpenSubdiv::v3_6_0::Vtr::internal::Level *>>::_Vector_impl" }
%"struct.std::_Vector_base<OpenSubdiv::v3_6_0::Vtr::internal::Level *, std::allocator<OpenSubdiv::v3_6_0::Vtr::internal::Level *>>::_Vector_impl" = type { %"struct.std::_Vector_base<OpenSubdiv::v3_6_0::Vtr::internal::Level *, std::allocator<OpenSubdiv::v3_6_0::Vtr::internal::Level *>>::_Vector_impl_data" }
%"struct.std::_Vector_base<OpenSubdiv::v3_6_0::Vtr::internal::Level *, std::allocator<OpenSubdiv::v3_6_0::Vtr::internal::Level *>>::_Vector_impl_data" = type { ptr, ptr, ptr }
%"class.std::vector.0" = type { %"struct.std::_Vector_base.1" }
%"struct.std::_Vector_base.1" = type { %"struct.std::_Vector_base<OpenSubdiv::v3_6_0::Vtr::internal::Refinement *, std::allocator<OpenSubdiv::v3_6_0::Vtr::internal::Refinement *>>::_Vector_impl" }
%"struct.std::_Vector_base<OpenSubdiv::v3_6_0::Vtr::internal::Refinement *, std::allocator<OpenSubdiv::v3_6_0::Vtr::internal::Refinement *>>::_Vector_impl" = type { %"struct.std::_Vector_base<OpenSubdiv::v3_6_0::Vtr::internal::Refinement *, std::allocator<OpenSubdiv::v3_6_0::Vtr::internal::Refinement *>>::_Vector_impl_data" }
%"struct.std::_Vector_base<OpenSubdiv::v3_6_0::Vtr::internal::Refinement *, std::allocator<OpenSubdiv::v3_6_0::Vtr::internal::Refinement *>>::_Vector_impl_data" = type { ptr, ptr, ptr }
%"class.std::vector.5" = type { %"struct.std::_Vector_base.6" }
%"struct.std::_Vector_base.6" = type { %"struct.std::_Vector_base<OpenSubdiv::v3_6_0::Far::TopologyLevel, std::allocator<OpenSubdiv::v3_6_0::Far::TopologyLevel>>::_Vector_impl" }
%"struct.std::_Vector_base<OpenSubdiv::v3_6_0::Far::TopologyLevel, std::allocator<OpenSubdiv::v3_6_0::Far::TopologyLevel>>::_Vector_impl" = type { %"struct.std::_Vector_base<OpenSubdiv::v3_6_0::Far::TopologyLevel, std::allocator<OpenSubdiv::v3_6_0::Far::TopologyLevel>>::_Vector_impl_data" }
%"struct.std::_Vector_base<OpenSubdiv::v3_6_0::Far::TopologyLevel, std::allocator<OpenSubdiv::v3_6_0::Far::TopologyLevel>>::_Vector_impl_data" = type { ptr, ptr, ptr }
%"class.OpenSubdiv::v3_6_0::Vtr::internal::Level" = type { i32, i32, i32, i32, i32, i32, %"class.std::vector.10", %"class.std::vector.10", %"class.std::vector.10", %"class.std::vector.15", %"class.std::vector.10", %"class.std::vector.10", %"class.std::vector.10", %"class.std::vector.20", %"class.std::vector.25", %"class.std::vector.30", %"class.std::vector.10", %"class.std::vector.10", %"class.std::vector.20", %"class.std::vector.10", %"class.std::vector.10", %"class.std::vector.20", %"class.std::vector.25", %"class.std::vector.35", %"class.std::vector.40" }
%"class.std::vector.15" = type { %"struct.std::_Vector_base.16" }
%"struct.std::_Vector_base.16" = type { %"struct.std::_Vector_base<OpenSubdiv::v3_6_0::Vtr::internal::Level::FTag, std::allocator<OpenSubdiv::v3_6_0::Vtr::internal::Level::FTag>>::_Vector_impl" }
%"struct.std::_Vector_base<OpenSubdiv::v3_6_0::Vtr::internal::Level::FTag, std::allocator<OpenSubdiv::v3_6_0::Vtr::internal::Level::FTag>>::_Vector_impl" = type { %"struct.std::_Vector_base<OpenSubdiv::v3_6_0::Vtr::internal::Level::FTag, std::allocator<OpenSubdiv::v3_6_0::Vtr::internal::Level::FTag>>::_Vector_impl_data" }
%"struct.std::_Vector_base<OpenSubdiv::v3_6_0::Vtr::internal::Level::FTag, std::allocator<OpenSubdiv::v3_6_0::Vtr::internal::Level::FTag>>::_Vector_impl_data" = type { ptr, ptr, ptr }
%"class.std::vector.30" = type { %"struct.std::_Vector_base.31" }
%"struct.std::_Vector_base.31" = type { %"struct.std::_Vector_base<OpenSubdiv::v3_6_0::Vtr::internal::Level::ETag, std::allocator<OpenSubdiv::v3_6_0::Vtr::internal::Level::ETag>>::_Vector_impl" }
%"struct.std::_Vector_base<OpenSubdiv::v3_6_0::Vtr::internal::Level::ETag, std::allocator<OpenSubdiv::v3_6_0::Vtr::internal::Level::ETag>>::_Vector_impl" = type { %"struct.std::_Vector_base<OpenSubdiv::v3_6_0::Vtr::internal::Level::ETag, std::allocator<OpenSubdiv::v3_6_0::Vtr::internal::Level::ETag>>::_Vector_impl_data" }
%"struct.std::_Vector_base<OpenSubdiv::v3_6_0::Vtr::internal::Level::ETag, std::allocator<OpenSubdiv::v3_6_0::Vtr::internal::Level::ETag>>::_Vector_impl_data" = type { ptr, ptr, ptr }
%"class.std::vector.10" = type { %"struct.std::_Vector_base.11" }
%"struct.std::_Vector_base.11" = type { %"struct.std::_Vector_base<int, std::allocator<int>>::_Vector_impl" }
%"struct.std::_Vector_base<int, std::allocator<int>>::_Vector_impl" = type { %"struct.std::_Vector_base<int, std::allocator<int>>::_Vector_impl_data" }
%"struct.std::_Vector_base<int, std::allocator<int>>::_Vector_impl_data" = type { ptr, ptr, ptr }
%"class.std::vector.20" = type { %"struct.std::_Vector_base.21" }
%"struct.std::_Vector_base.21" = type { %"struct.std::_Vector_base<unsigned short, std::allocator<unsigned short>>::_Vector_impl" }
%"struct.std::_Vector_base<unsigned short, std::allocator<unsigned short>>::_Vector_impl" = type { %"struct.std::_Vector_base<unsigned short, std::allocator<unsigned short>>::_Vector_impl_data" }
%"struct.std::_Vector_base<unsigned short, std::allocator<unsigned short>>::_Vector_impl_data" = type { ptr, ptr, ptr }
%"class.std::vector.25" = type { %"struct.std::_Vector_base.26" }
%"struct.std::_Vector_base.26" = type { %"struct.std::_Vector_base<float, std::allocator<float>>::_Vector_impl" }
%"struct.std::_Vector_base<float, std::allocator<float>>::_Vector_impl" = type { %"struct.std::_Vector_base<float, std::allocator<float>>::_Vector_impl_data" }
%"struct.std::_Vector_base<float, std::allocator<float>>::_Vector_impl_data" = type { ptr, ptr, ptr }
%"class.std::vector.35" = type { %"struct.std::_Vector_base.36" }
%"struct.std::_Vector_base.36" = type { %"struct.std::_Vector_base<OpenSubdiv::v3_6_0::Vtr::internal::Level::VTag, std::allocator<OpenSubdiv::v3_6_0::Vtr::internal::Level::VTag>>::_Vector_impl" }
%"struct.std::_Vector_base<OpenSubdiv::v3_6_0::Vtr::internal::Level::VTag, std::allocator<OpenSubdiv::v3_6_0::Vtr::internal::Level::VTag>>::_Vector_impl" = type { %"struct.std::_Vector_base<OpenSubdiv::v3_6_0::Vtr::internal::Level::VTag, std::allocator<OpenSubdiv::v3_6_0::Vtr::internal::Level::VTag>>::_Vector_impl_data" }
%"struct.std::_Vector_base<OpenSubdiv::v3_6_0::Vtr::internal::Level::VTag, std::allocator<OpenSubdiv::v3_6_0::Vtr::internal::Level::VTag>>::_Vector_impl_data" = type { ptr, ptr, ptr }
%"class.std::vector.40" = type { %"struct.std::_Vector_base.41" }
%"struct.std::_Vector_base.41" = type { %"struct.std::_Vector_base<OpenSubdiv::v3_6_0::Vtr::internal::FVarLevel *, std::allocator<OpenSubdiv::v3_6_0::Vtr::internal::FVarLevel *>>::_Vector_impl" }
%"struct.std::_Vector_base<OpenSubdiv::v3_6_0::Vtr::internal::FVarLevel *, std::allocator<OpenSubdiv::v3_6_0::Vtr::internal::FVarLevel *>>::_Vector_impl" = type { %"struct.std::_Vector_base<OpenSubdiv::v3_6_0::Vtr::internal::FVarLevel *, std::allocator<OpenSubdiv::v3_6_0::Vtr::internal::FVarLevel *>>::_Vector_impl_data" }
%"struct.std::_Vector_base<OpenSubdiv::v3_6_0::Vtr::internal::FVarLevel *, std::allocator<OpenSubdiv::v3_6_0::Vtr::internal::FVarLevel *>>::_Vector_impl_data" = type { ptr, ptr, ptr }

@.str.6 = private unnamed_addr constant [82 x i8] c"Failure in TopologyRefinerFactory<>::Create() -- vertex with valence %d > %d max.\00", align 1
@.str.7 = private unnamed_addr constant [79 x i8] c"Failure in TopologyRefinerFactory<>::Create() -- maximum valence not assigned.\00", align 1
@.str.8 = private unnamed_addr constant [103 x i8] c"Failure in TopologyRefinerFactory<>::Create() -- invalid topology detected from partial specification.\00", align 1
@.str.9 = private unnamed_addr constant [95 x i8] c"Failure in TopologyRefinerFactory<>::Create() -- invalid topology detected as fully specified.\00", align 1

; Function Attrs: mustprogress nounwind uwtable
define linkonce_odr noundef nonnull align 8 dereferenceable(8) ptr @_ZNSt6vectorIPN10OpenSubdiv6v3_6_03Vtr8internal5LevelESaIS5_EEixEm(ptr noundef nonnull align 8 dereferenceable(24) %0, i64 noundef %1) #1 comdat align 2 {
  %3 = alloca ptr, align 8
  %4 = alloca i64, align 8
  store ptr %0, ptr %3, align 8
  store i64 %1, ptr %4, align 8
  %5 = load ptr, ptr %3, align 8
  %6 = getelementptr inbounds nuw %"struct.std::_Vector_base", ptr %5, i32 0, i32 0
  %7 = getelementptr inbounds nuw %"struct.std::_Vector_base<OpenSubdiv::v3_6_0::Vtr::internal::Level *, std::allocator<OpenSubdiv::v3_6_0::Vtr::internal::Level *>>::_Vector_impl_data", ptr %6, i32 0, i32 0
  %8 = load ptr, ptr %7, align 8
  %9 = load i64, ptr %4, align 8
  %10 = getelementptr inbounds ptr, ptr %8, i64 %9
  ret ptr %10
}

; Function Attrs: mustprogress nounwind uwtable
define linkonce_odr noundef i32 @_ZNK10OpenSubdiv6v3_6_03Vtr8internal5Level13getMaxValenceEv(ptr noundef nonnull align 8 dereferenceable(480) %0) #1 comdat align 2 {
  %2 = alloca ptr, align 8
  store ptr %0, ptr %2, align 8
  %3 = load ptr, ptr %2, align 8
  %4 = getelementptr inbounds nuw %"class.OpenSubdiv::v3_6_0::Vtr::internal::Level", ptr %3, i32 0, i32 5
  %5 = load i32, ptr %4, align 4
  ret i32 %5
}

; Function Attrs: mustprogress nounwind uwtable
define linkonce_odr noundef i32 @_ZNK10OpenSubdiv6v3_6_03Vtr8internal5Level11getNumEdgesEv(ptr noundef nonnull align 8 dereferenceable(480) %0) #1 comdat align 2 {
  %2 = alloca ptr, align 8
  store ptr %0, ptr %2, align 8
  %3 = load ptr, ptr %2, align 8
  %4 = getelementptr inbounds nuw %"class.OpenSubdiv::v3_6_0::Vtr::internal::Level", ptr %3, i32 0, i32 1
  %5 = load i32, ptr %4, align 4
  ret i32 %5
}

; Function Attrs: mustprogress nounwind uwtable
define linkonce_odr noundef nonnull align 8 dereferenceable(480) ptr @_ZN10OpenSubdiv6v3_6_03Far15TopologyRefiner8getLevelEi(ptr noundef nonnull align 8 dereferenceable(120) %0, i32 noundef %1) #1 comdat align 2 {
  %3 = alloca ptr, align 8
  %4 = alloca i32, align 4
  store ptr %0, ptr %3, align 8
  store i32 %1, ptr %4, align 4
  %5 = load ptr, ptr %3, align 8
  %6 = getelementptr inbounds nuw %"class.OpenSubdiv::v3_6_0::Far::TopologyRefiner", ptr %5, i32 0, i32 12
  %7 = load i32, ptr %4, align 4
  %8 = sext i32 %7 to i64
  %9 = call noundef nonnull align 8 dereferenceable(8) ptr @_ZNSt6vectorIPN10OpenSubdiv6v3_6_03Vtr8internal5LevelESaIS5_EEixEm(ptr noundef nonnull align 8 dereferenceable(24) %6, i64 noundef %8) #9
  %10 = load ptr, ptr %9, align 8
  ret ptr %10
}

; Function Attrs: mustprogress uwtable
define noundef zeroext i1 @_ZN10OpenSubdiv6v3_6_03Far26TopologyRefinerFactoryBase34prepareComponentTopologyAssignmentERNS1_15TopologyRefinerEbPFvNS0_3Vtr8internal5Level13TopologyErrorEPKcPKvESC_(ptr noundef nonnull align 8 dereferenceable(120) %0, i1 noundef zeroext %1, ptr noundef %2, ptr noundef %3) #0 align 2 {
  %5 = alloca i1, align 1
  %6 = alloca ptr, align 8
  %7 = alloca i8, align 1
  %8 = alloca ptr, align 8
  %9 = alloca ptr, align 8
  %10 = alloca ptr, align 8
  %11 = alloca i8, align 1
  %12 = alloca [1024 x i8], align 16
  store ptr %0, ptr %6, align 8
  %13 = zext i1 %1 to i8
  store i8 %13, ptr %7, align 1
  store ptr %2, ptr %8, align 8
  store ptr %3, ptr %9, align 8
  %14 = load ptr, ptr %6, align 8
  %15 = call noundef nonnull align 8 dereferenceable(480) ptr @_ZN10OpenSubdiv6v3_6_03Far15TopologyRefiner8getLevelEi(ptr noundef nonnull align 8 dereferenceable(120) %14, i32 noundef 0)
  store ptr %15, ptr %10, align 8
  %16 = load ptr, ptr %10, align 8
  %17 = call noundef i32 @_ZNK10OpenSubdiv6v3_6_03Vtr8internal5Level11getNumEdgesEv(ptr noundef nonnull align 8 dereferenceable(480) %16)
  %18 = icmp eq i32 %17, 0
  %19 = zext i1 %18 to i8
  store i8 %19, ptr %11, align 1
  %20 = load i8, ptr %11, align 1
  %21 = trunc i8 %20 to i1
  br i1 %21, label %22, label %32

22:                                               ; preds = %4
  %23 = load ptr, ptr %10, align 8
  %24 = call noundef zeroext i1 @_ZN10OpenSubdiv6v3_6_03Vtr8internal5Level32completeTopologyFromFaceVerticesEv(ptr noundef nonnull align 8 dereferenceable(480) %23)
  br i1 %24, label %31, label %25

25:                                               ; preds = %22
  %26 = getelementptr inbounds [1024 x i8], ptr %12, i64 0, i64 0
  %27 = load ptr, ptr %10, align 8
  %28 = call noundef i32 @_ZNK10OpenSubdiv6v3_6_03Vtr8internal5Level13getMaxValenceEv(ptr noundef nonnull align 8 dereferenceable(480) %27)
  %29 = call i32 (ptr, i64, ptr, ...) @snprintf(ptr noundef %26, i64 noundef 1024, ptr noundef @.str.6, i32 noundef %28, i32 noundef 65535) #9
  %30 = getelementptr inbounds [1024 x i8], ptr %12, i64 0, i64 0
  call void (i32, ptr, ...) @_ZN10OpenSubdiv6v3_6_03Far5ErrorENS1_9ErrorTypeEPKcz(i32 noundef 4, ptr noundef %30)
  store i1 false, ptr %5, align 1
  br label %55

31:                                               ; preds = %22
  br label %38

32:                                               ; preds = %4
  %33 = load ptr, ptr %10, align 8
  %34 = call noundef i32 @_ZNK10OpenSubdiv6v3_6_03Vtr8internal5Level13getMaxValenceEv(ptr noundef nonnull align 8 dereferenceable(480) %33)
  %35 = icmp eq i32 %34, 0
  br i1 %35, label %36, label %37

36:                                               ; preds = %32
  call void (i32, ptr, ...) @_ZN10OpenSubdiv6v3_6_03Far5ErrorENS1_9ErrorTypeEPKcz(i32 noundef 4, ptr noundef @.str.7)
  store i1 false, ptr %5, align 1
  br label %55

37:                                               ; preds = %32
  br label %38

38:                                               ; preds = %37, %31
  %39 = load i8, ptr %7, align 1
  %40 = trunc i8 %39 to i1
  br i1 %40, label %41, label %53

41:                                               ; preds = %38
  %42 = load ptr, ptr %10, align 8
  %43 = load ptr, ptr %8, align 8
  %44 = load ptr, ptr %9, align 8
  %45 = call noundef zeroext i1 @_ZNK10OpenSubdiv6v3_6_03Vtr8internal5Level16validateTopologyEPFvNS3_13TopologyErrorEPKcPKvES8_(ptr noundef nonnull align 8 dereferenceable(480) %42, ptr noundef %43, ptr noundef %44)
  br i1 %45, label %52, label %46

46:                                               ; preds = %41
  %47 = load i8, ptr %11, align 1
  %48 = trunc i8 %47 to i1
  br i1 %48, label %49, label %50

49:                                               ; preds = %46
  call void (i32, ptr, ...) @_ZN10OpenSubdiv6v3_6_03Far5ErrorENS1_9ErrorTypeEPKcz(i32 noundef 4, ptr noundef @.str.8)
  br label %51

50:                                               ; preds = %46
  call void (i32, ptr, ...) @_ZN10OpenSubdiv6v3_6_03Far5ErrorENS1_9ErrorTypeEPKcz(i32 noundef 4, ptr noundef @.str.9)
  br label %51

51:                                               ; preds = %50, %49
  store i1 false, ptr %5, align 1
  br label %55

52:                                               ; preds = %41
  br label %53

53:                                               ; preds = %52, %38
  %54 = load ptr, ptr %6, align 8
  call void @_ZN10OpenSubdiv6v3_6_03Far15TopologyRefiner19initializeInventoryEv(ptr noundef nonnull align 8 dereferenceable(120) %54)
  store i1 true, ptr %5, align 1
  br label %55

55:                                               ; preds = %53, %51, %36, %25
  %56 = load i1, ptr %5, align 1
  ret i1 %56
}