; Function Attrs: mustprogress uwtable
define noundef zeroext i1 @_ZN10OpenSubdiv6v3_6_03Far26TopologyRefinerFactoryBase34prepareComponentTopologyAssignmentERNS1_15TopologyRefinerEbPFvNS0_3Vtr8internal5Level13TopologyErrorEPKcPKvESC_(ptr noundef nonnull align 8 dereferenceable(120) %0, i1 noundef zeroext %1, ptr noundef %2, ptr noundef %3) local_unnamed_addr #0 align 2 {
  %5 = alloca [1024 x i8], align 16
  %6 = getelementptr inbounds nuw i8, ptr %0, i64 48
  %7 = load ptr, ptr %6, align 8
  %8 = load ptr, ptr %7, align 8
  %9 = getelementptr inbounds nuw i8, ptr %8, i64 4
  %10 = load i32, ptr %9, align 4
  %11 = icmp eq i32 %10, 0
  br i1 %11, label %12, label %18

12:                                               ; preds = %4
  %13 = tail call noundef zeroext i1 @_ZN10OpenSubdiv6v3_6_03Vtr8internal5Level32completeTopologyFromFaceVerticesEv(ptr noundef nonnull align 8 dereferenceable(480) %8)
  br i1 %13, label %23, label %14

14:                                               ; preds = %12
  %15 = getelementptr inbounds nuw i8, ptr %8, i64 20
  %16 = load i32, ptr %15, align 4
  %17 = call i32 (ptr, i64, ptr, ...) @snprintf(ptr noundef nonnull dereferenceable(1) %5, i64 noundef 1024, ptr noundef nonnull @.str.6, i32 noundef %16, i32 noundef 65535) #10
  call void (i32, ptr, ...) @_ZN10OpenSubdiv6v3_6_03Far5ErrorENS1_9ErrorTypeEPKcz(i32 noundef 4, ptr noundef nonnull %5)
  br label %30

18:                                               ; preds = %4
  %19 = getelementptr inbounds nuw i8, ptr %8, i64 20
  %20 = load i32, ptr %19, align 4
  %21 = icmp eq i32 %20, 0
  br i1 %21, label %22, label %23

22:                                               ; preds = %18
  tail call void (i32, ptr, ...) @_ZN10OpenSubdiv6v3_6_03Far5ErrorENS1_9ErrorTypeEPKcz(i32 noundef 4, ptr noundef nonnull @.str.7)
  br label %30

23:                                               ; preds = %18, %12
  br i1 %1, label %24, label %29

24:                                               ; preds = %23
  %25 = tail call noundef zeroext i1 @_ZNK10OpenSubdiv6v3_6_03Vtr8internal5Level16validateTopologyEPFvNS3_13TopologyErrorEPKcPKvES8_(ptr noundef nonnull align 8 dereferenceable(480) %8, ptr noundef %2, ptr noundef %3)
  br i1 %25, label %29, label %26

26:                                               ; preds = %24
  br i1 %11, label %27, label %28

27:                                               ; preds = %26
  tail call void (i32, ptr, ...) @_ZN10OpenSubdiv6v3_6_03Far5ErrorENS1_9ErrorTypeEPKcz(i32 noundef 4, ptr noundef nonnull @.str.8)
  br label %30

28:                                               ; preds = %26
  tail call void (i32, ptr, ...) @_ZN10OpenSubdiv6v3_6_03Far5ErrorENS1_9ErrorTypeEPKcz(i32 noundef 4, ptr noundef nonnull @.str.9)
  br label %30

29:                                               ; preds = %24, %23
  tail call void @_ZN10OpenSubdiv6v3_6_03Far15TopologyRefiner19initializeInventoryEv(ptr noundef nonnull align 8 dereferenceable(120) %0)
  br label %30

30:                                               ; preds = %27, %28, %29, %22, %14
  %.0 = phi i1 [ true, %29 ], [ false, %14 ], [ false, %22 ], [ false, %28 ], [ false, %27 ]
  ret i1 %.0
}